target datalayout = "e-m:e-p270:32:32-p271:32:32-p272:64:64-i64:64-i128:128-f80:128-n8:16:32:64-S128"
target triple = "x86_64-pc-linux-gnu"

@.str.273 = private unnamed_addr constant [17 x i8] c"SIZEOF_PYGC_HEAD\00", align 1
@.str.274 = private unnamed_addr constant [26 x i8] c"SIZEOF_MANAGED_PRE_HEADER\00", align 1
@.str.275 = private unnamed_addr constant [16 x i8] c"SIZEOF_PYOBJECT\00", align 1
@.str.276 = private unnamed_addr constant [14 x i8] c"SIZEOF_TIME_T\00", align 1
@.str.277 = private unnamed_addr constant [16 x i8] c"TIER2_THRESHOLD\00", align 1
@.str.278 = private unnamed_addr constant [25 x i8] c"SPECIALIZATION_THRESHOLD\00", align 1
@.str.279 = private unnamed_addr constant [24 x i8] c"SPECIALIZATION_COOLDOWN\00", align 1
@.str.280 = private unnamed_addr constant [21 x i8] c"SHARED_KEYS_MAX_SIZE\00", align 1

; Function Attrs: nounwind uwtable
define internal i32 @module_exec(ptr noundef %0) #0 {
  %2 = alloca i32, align 4
  %3 = alloca ptr, align 8
  %4 = alloca i64, align 8
  %5 = alloca i32, align 4
  store ptr %0, ptr %3, align 8, !tbaa !3
  %6 = load ptr, ptr %3, align 8, !tbaa !3
  %7 = call i32 @_PyTestInternalCapi_Init_Lock(ptr noundef %6)
  %8 = icmp slt i32 %7, 0
  br i1 %8, label %9, label %10

9:                                                ; preds = %1
  store i32 1, ptr %2, align 4
  br label %76

10:                                               ; preds = %1
  %11 = load ptr, ptr %3, align 8, !tbaa !3
  %12 = call i32 @_PyTestInternalCapi_Init_PyTime(ptr noundef %11)
  %13 = icmp slt i32 %12, 0
  br i1 %13, label %14, label %15

14:                                               ; preds = %10
  store i32 1, ptr %2, align 4
  br label %76

15:                                               ; preds = %10
  %16 = load ptr, ptr %3, align 8, !tbaa !3
  %17 = call i32 @_PyTestInternalCapi_Init_Set(ptr noundef %16)
  %18 = icmp slt i32 %17, 0
  br i1 %18, label %19, label %20

19:                                               ; preds = %15
  store i32 1, ptr %2, align 4
  br label %76

20:                                               ; preds = %15
  %21 = load ptr, ptr %3, align 8, !tbaa !3
  %22 = call i32 @_PyTestInternalCapi_Init_CriticalSection(ptr noundef %21)
  %23 = icmp slt i32 %22, 0
  br i1 %23, label %24, label %25

24:                                               ; preds = %20
  store i32 1, ptr %2, align 4
  br label %76

25:                                               ; preds = %20
  call void @llvm.lifetime.start.p0(i64 8, ptr %4) #10
  store i64 0, ptr %4, align 8, !tbaa !27
  store i64 16, ptr %4, align 8, !tbaa !27
  %26 = load ptr, ptr %3, align 8, !tbaa !3
  %27 = load i64, ptr %4, align 8, !tbaa !27
  %28 = call ptr @PyLong_FromSsize_t(i64 noundef %27)
  %29 = call i32 @PyModule_Add(ptr noundef %26, ptr noundef @.str.273, ptr noundef %28)
  %30 = icmp slt i32 %29, 0
  br i1 %30, label %31, label %32

31:                                               ; preds = %25
  store i32 1, ptr %2, align 4
  store i32 1, ptr %5, align 4
  br label %75

32:                                               ; preds = %25
  %33 = load ptr, ptr %3, align 8, !tbaa !3
  %34 = call ptr @PyLong_FromSsize_t(i64 noundef 16)
  %35 = call i32 @PyModule_Add(ptr noundef %33, ptr noundef @.str.274, ptr noundef %34)
  %36 = icmp slt i32 %35, 0
  br i1 %36, label %37, label %38

37:                                               ; preds = %32
  store i32 1, ptr %2, align 4
  store i32 1, ptr %5, align 4
  br label %75

38:                                               ; preds = %32
  %39 = load ptr, ptr %3, align 8, !tbaa !3
  %40 = call ptr @PyLong_FromSsize_t(i64 noundef 16)
  %41 = call i32 @PyModule_Add(ptr noundef %39, ptr noundef @.str.275, ptr noundef %40)
  %42 = icmp slt i32 %41, 0
  br i1 %42, label %43, label %44

43:                                               ; preds = %38
  store i32 1, ptr %2, align 4
  store i32 1, ptr %5, align 4
  br label %75

44:                                               ; preds = %38
  %45 = load ptr, ptr %3, align 8, !tbaa !3
  %46 = call ptr @PyLong_FromSsize_t(i64 noundef 8)
  %47 = call i32 @PyModule_Add(ptr noundef %45, ptr noundef @.str.276, ptr noundef %46)
  %48 = icmp slt i32 %47, 0
  br i1 %48, label %49, label %50

49:                                               ; preds = %44
  store i32 1, ptr %2, align 4
  store i32 1, ptr %5, align 4
  br label %75

50:                                               ; preds = %44
  %51 = load ptr, ptr %3, align 8, !tbaa !3
  %52 = call ptr @PyLong_FromLong(i64 noundef 4096)
  %53 = call i32 @PyModule_Add(ptr noundef %51, ptr noundef @.str.277, ptr noundef %52)
  %54 = icmp slt i32 %53, 0
  br i1 %54, label %55, label %56

55:                                               ; preds = %50
  store i32 1, ptr %2, align 4
  store i32 1, ptr %5, align 4
  br label %75

56:                                               ; preds = %50
  %57 = load ptr, ptr %3, align 8, !tbaa !3
  %58 = call ptr @PyLong_FromLong(i64 noundef 2)
  %59 = call i32 @PyModule_Add(ptr noundef %57, ptr noundef @.str.278, ptr noundef %58)
  %60 = icmp slt i32 %59, 0
  br i1 %60, label %61, label %62

61:                                               ; preds = %56
  store i32 1, ptr %2, align 4
  store i32 1, ptr %5, align 4
  br label %75

62:                                               ; preds = %56
  %63 = load ptr, ptr %3, align 8, !tbaa !3
  %64 = call ptr @PyLong_FromLong(i64 noundef 53)
  %65 = call i32 @PyModule_Add(ptr noundef %63, ptr noundef @.str.279, ptr noundef %64)
  %66 = icmp slt i32 %65, 0
  br i1 %66, label %67, label %68

67:                                               ; preds = %62
  store i32 1, ptr %2, align 4
  store i32 1, ptr %5, align 4
  br label %75

68:                                               ; preds = %62
  %69 = load ptr, ptr %3, align 8, !tbaa !3
  %70 = call ptr @PyLong_FromLong(i64 noundef 30)
  %71 = call i32 @PyModule_Add(ptr noundef %69, ptr noundef @.str.280, ptr noundef %70)
  %72 = icmp slt i32 %71, 0
  br i1 %72, label %73, label %74

73:                                               ; preds = %68
  store i32 1, ptr %2, align 4
  store i32 1, ptr %5, align 4
  br label %75

74:                                               ; preds = %68
  store i32 0, ptr %2, align 4
  store i32 1, ptr %5, align 4
  br label %75

75:                                               ; preds = %74, %73, %67, %61, %55, %49, %43, %37, %31
  call void @llvm.lifetime.end.p0(i64 8, ptr %4) #10
  br label %76

76:                                               ; preds = %75, %24, %19, %14, %9
  %77 = load i32, ptr %2, align 4
  ret i32 %77
}