; Function Attrs: nounwind uwtable
define internal range(i32 0, 2) i32 @module_exec(ptr noundef %0) #0 {
  %2 = tail call i32 @_PyTestInternalCapi_Init_Lock(ptr noundef %0) #11
  %3 = icmp slt i32 %2, 0
  br i1 %3, label %44, label %4

4:                                                ; preds = %1
  %5 = tail call i32 @_PyTestInternalCapi_Init_PyTime(ptr noundef %0) #11
  %6 = icmp slt i32 %5, 0
  br i1 %6, label %44, label %7

7:                                                ; preds = %4
  %8 = tail call i32 @_PyTestInternalCapi_Init_Set(ptr noundef %0) #11
  %9 = icmp slt i32 %8, 0
  br i1 %9, label %44, label %10

10:                                               ; preds = %7
  %11 = tail call i32 @_PyTestInternalCapi_Init_CriticalSection(ptr noundef %0) #11
  %12 = icmp slt i32 %11, 0
  br i1 %12, label %44, label %13

13:                                               ; preds = %10
  %14 = tail call ptr @PyLong_FromSsize_t(i64 noundef 16) #11
  %15 = tail call i32 @PyModule_Add(ptr noundef %0, ptr noundef nonnull @.str.273, ptr noundef %14) #11
  %16 = icmp slt i32 %15, 0
  br i1 %16, label %44, label %17

17:                                               ; preds = %13
  %18 = tail call ptr @PyLong_FromSsize_t(i64 noundef 16) #11
  %19 = tail call i32 @PyModule_Add(ptr noundef %0, ptr noundef nonnull @.str.274, ptr noundef %18) #11
  %20 = icmp slt i32 %19, 0
  br i1 %20, label %44, label %21

21:                                               ; preds = %17
  %22 = tail call ptr @PyLong_FromSsize_t(i64 noundef 16) #11
  %23 = tail call i32 @PyModule_Add(ptr noundef %0, ptr noundef nonnull @.str.275, ptr noundef %22) #11
  %24 = icmp slt i32 %23, 0
  br i1 %24, label %44, label %25

25:                                               ; preds = %21
  %26 = tail call ptr @PyLong_FromSsize_t(i64 noundef 8) #11
  %27 = tail call i32 @PyModule_Add(ptr noundef %0, ptr noundef nonnull @.str.276, ptr noundef %26) #11
  %28 = icmp slt i32 %27, 0
  br i1 %28, label %44, label %29

29:                                               ; preds = %25
  %30 = tail call ptr @PyLong_FromLong(i64 noundef 4096) #11
  %31 = tail call i32 @PyModule_Add(ptr noundef %0, ptr noundef nonnull @.str.277, ptr noundef %30) #11
  %32 = icmp slt i32 %31, 0
  br i1 %32, label %44, label %33

33:                                               ; preds = %29
  %34 = tail call ptr @PyLong_FromLong(i64 noundef 2) #11
  %35 = tail call i32 @PyModule_Add(ptr noundef %0, ptr noundef nonnull @.str.278, ptr noundef %34) #11
  %36 = icmp slt i32 %35, 0
  br i1 %36, label %44, label %37

37:                                               ; preds = %33
  %38 = tail call ptr @PyLong_FromLong(i64 noundef 53) #11
  %39 = tail call i32 @PyModule_Add(ptr noundef %0, ptr noundef nonnull @.str.279, ptr noundef %38) #11
  %40 = icmp slt i32 %39, 0
  br i1 %40, label %44, label %41

41:                                               ; preds = %37
  %42 = tail call ptr @PyLong_FromLong(i64 noundef 30) #11
  %43 = tail call i32 @PyModule_Add(ptr noundef %0, ptr noundef nonnull @.str.280, ptr noundef %42) #11
  %.lobit = lshr i32 %43, 31
  br label %44

44:                                               ; preds = %13, %17, %21, %25, %29, %33, %37, %41, %10, %7, %4, %1
  %.0 = phi i32 [ 1, %1 ], [ 1, %4 ], [ 1, %7 ], [ 1, %10 ], [ 1, %13 ], [ 1, %17 ], [ 1, %21 ], [ 1, %25 ], [ 1, %29 ], [ 1, %33 ], [ 1, %37 ], [ %.lobit, %41 ]
  ret i32 %.0
}